target datalayout = "e-m:e-p270:32:32-p271:32:32-p272:64:64-i64:64-i128:128-f80:128-n8:16:32:64-S128"
target triple = "x86_64-pc-linux-gnu"

; Function Attrs: mustprogress uwtable
define noundef i32 @_ZNK8tinyxml210XMLElement7IntTextEi(ptr noundef nonnull align 8 dereferenceable(120) %0, i32 noundef %1) #2 align 2 {
  %3 = alloca ptr, align 8
  %4 = alloca i32, align 4
  %5 = alloca i32, align 4
  store ptr %0, ptr %3, align 8, !tbaa !106
  store i32 %1, ptr %4, align 4, !tbaa !15
  %6 = load ptr, ptr %3, align 8
  call void @llvm.lifetime.start.p0(i64 4, ptr %5) #18
  %7 = load i32, ptr %4, align 4, !tbaa !15
  store i32 %7, ptr %5, align 4, !tbaa !15
  %8 = call noundef i32 @_ZNK8tinyxml210XMLElement12QueryIntTextEPi(ptr noundef nonnull align 8 dereferenceable(120) %6, ptr noundef %5)
  %9 = load i32, ptr %5, align 4, !tbaa !15
  call void @llvm.lifetime.end.p0(i64 4, ptr %5) #18
  ret i32 %9
}