; Function Attrs: mustprogress uwtable
define noundef i32 @_ZNK8tinyxml210XMLElement7IntTextEi(ptr noundef nonnull readonly align 8 captures(none) dereferenceable(120) %0, i32 noundef %1) local_unnamed_addr #4 align 2 {
  %3 = alloca i32, align 4
  call void @llvm.lifetime.start.p0(i64 4, ptr nonnull %3) #31
  store i32 %1, ptr %3, align 4, !tbaa !13
  %4 = call noundef i32 @_ZNK8tinyxml210XMLElement12QueryIntTextEPi(ptr noundef nonnull align 8 dereferenceable(120) %0, ptr noundef nonnull %3)
  %5 = load i32, ptr %3, align 4, !tbaa !13
  call void @llvm.lifetime.end.p0(i64 4, ptr nonnull %3) #31
  ret i32 %5
}